; Function Attrs: mustprogress uwtable
define hidden void @_ZN5zxing6String6appendEi(ptr noundef nonnull align 8 dereferenceable(48) %0, i32 noundef %1) local_unnamed_addr #0 align 2 personality ptr @__gxx_personality_v0 {
  %3 = alloca %"class.std::__cxx11::basic_string", align 8
  call void @llvm.lifetime.start.p0(i64 32, ptr nonnull %3) #18
  call void @_ZN5zxing7StrUtil14numberToStringIiEENSt7__cxx1112basic_stringIcSt11char_traitsIcESaIcEEET_(ptr dead_on_unwind nonnull writable sret(%"class.std::__cxx11::basic_string") align 8 %3, i32 noundef %1)
  %4 = getelementptr inbounds nuw i8, ptr %3, i64 8
  %5 = load i64, ptr %4, align 8, !tbaa !17
  %6 = getelementptr inbounds nuw i8, ptr %0, i64 24
  %7 = load i64, ptr %6, align 8, !tbaa !17
  %8 = sub i64 4611686018427387903, %7
  %9 = icmp ult i64 %8, %5
  br i1 %9, label %10, label %_ZNSt7__cxx1112basic_stringIcSt11char_traitsIcESaIcEE6appendEPKcm.exit.i

10:                                               ; preds = %2
  invoke void @_ZSt20__throw_length_errorPKc(ptr noundef nonnull @.str) #21
          to label %.noexc unwind label %19

.noexc:                                           ; preds = %10
  unreachable

_ZNSt7__cxx1112basic_stringIcSt11char_traitsIcESaIcEE6appendEPKcm.exit.i: ; preds = %2
  %11 = getelementptr inbounds nuw i8, ptr %0, i64 16
  %12 = load ptr, ptr %3, align 8, !tbaa !14
  %13 = invoke noundef nonnull align 8 dereferenceable(32) ptr @_ZNSt7__cxx1112basic_stringIcSt11char_traitsIcESaIcEE9_M_appendEPKcm(ptr noundef nonnull align 8 dereferenceable(32) %11, ptr noundef %12, i64 noundef %5)
          to label %_ZNSt7__cxx1112basic_stringIcSt11char_traitsIcESaIcEE6appendERKS4_.exit unwind label %19

_ZNSt7__cxx1112basic_stringIcSt11char_traitsIcESaIcEE6appendERKS4_.exit: ; preds = %_ZNSt7__cxx1112basic_stringIcSt11char_traitsIcESaIcEE6appendEPKcm.exit.i
  %14 = load ptr, ptr %3, align 8, !tbaa !14
  %15 = getelementptr inbounds nuw i8, ptr %3, i64 16
  %16 = icmp eq ptr %14, %15
  br i1 %16, label %_ZNKSt7__cxx1112basic_stringIcSt11char_traitsIcESaIcEE11_M_is_localEv.exit.thread.i.i, label %_ZNKSt7__cxx1112basic_stringIcSt11char_traitsIcESaIcEE11_M_is_localEv.exit.i.i

_ZNKSt7__cxx1112basic_stringIcSt11char_traitsIcESaIcEE11_M_is_localEv.exit.thread.i.i: ; preds = %_ZNSt7__cxx1112basic_stringIcSt11char_traitsIcESaIcEE6appendERKS4_.exit
  %17 = load i64, ptr %4, align 8, !tbaa !17
  %18 = icmp ult i64 %17, 16
  call void @llvm.assume(i1 %18)
  br label %_ZNSt7__cxx1112basic_stringIcSt11char_traitsIcESaIcEED2Ev.exit

_ZNKSt7__cxx1112basic_stringIcSt11char_traitsIcESaIcEE11_M_is_localEv.exit.i.i: ; preds = %_ZNSt7__cxx1112basic_stringIcSt11char_traitsIcESaIcEE6appendERKS4_.exit
  call void @_ZdlPv(ptr noundef %14) #19
  br label %_ZNSt7__cxx1112basic_stringIcSt11char_traitsIcESaIcEED2Ev.exit

_ZNSt7__cxx1112basic_stringIcSt11char_traitsIcESaIcEED2Ev.exit: ; preds = %_ZNKSt7__cxx1112basic_stringIcSt11char_traitsIcESaIcEE11_M_is_localEv.exit.thread.i.i, %_ZNKSt7__cxx1112basic_stringIcSt11char_traitsIcESaIcEE11_M_is_localEv.exit.i.i
  call void @llvm.lifetime.end.p0(i64 32, ptr nonnull %3) #18
  ret void

19:                                               ; preds = %_ZNSt7__cxx1112basic_stringIcSt11char_traitsIcESaIcEE6appendEPKcm.exit.i, %10
  %20 = landingpad { ptr, i32 }
          cleanup
  %21 = load ptr, ptr %3, align 8, !tbaa !14
  %22 = getelementptr inbounds nuw i8, ptr %3, i64 16
  %23 = icmp eq ptr %21, %22
  br i1 %23, label %_ZNKSt7__cxx1112basic_stringIcSt11char_traitsIcESaIcEE11_M_is_localEv.exit.thread.i.i5, label %_ZNKSt7__cxx1112basic_stringIcSt11char_traitsIcESaIcEE11_M_is_localEv.exit.i.i4

_ZNKSt7__cxx1112basic_stringIcSt11char_traitsIcESaIcEE11_M_is_localEv.exit.thread.i.i5: ; preds = %19
  %24 = load i64, ptr %4, align 8, !tbaa !17
  %25 = icmp ult i64 %24, 16
  call void @llvm.assume(i1 %25)
  br label %_ZNSt7__cxx1112basic_stringIcSt11char_traitsIcESaIcEED2Ev.exit6

_ZNKSt7__cxx1112basic_stringIcSt11char_traitsIcESaIcEE11_M_is_localEv.exit.i.i4: ; preds = %19
  call void @_ZdlPv(ptr noundef %21) #19
  br label %_ZNSt7__cxx1112basic_stringIcSt11char_traitsIcESaIcEED2Ev.exit6

_ZNSt7__cxx1112basic_stringIcSt11char_traitsIcESaIcEED2Ev.exit6: ; preds = %_ZNKSt7__cxx1112basic_stringIcSt11char_traitsIcESaIcEE11_M_is_localEv.exit.thread.i.i5, %_ZNKSt7__cxx1112basic_stringIcSt11char_traitsIcESaIcEE11_M_is_localEv.exit.i.i4
  call void @llvm.lifetime.end.p0(i64 32, ptr nonnull %3) #18
  resume { ptr, i32 } %20
}